; Function Attrs: nounwind sspstrong uwtable
define internal noundef i32 @sym_step_i(i64 noundef %0, i64 noundef %1) #0 {
  %3 = inttoptr i64 %1 to ptr
  %4 = load i64, ptr %3, align 8, !tbaa !7
  %5 = and i64 %4, 1
  %.not8.i = icmp eq i64 %5, 0
  br i1 %.not8.i, label %8, label %6

6:                                                ; preds = %2
  %7 = add i64 %4, -2
  br label %10

8:                                                ; preds = %2
  %9 = tail call i64 (i64, i64, i32, ...) @rb_funcall(i64 noundef %4, i64 noundef 45, i32 noundef 1, i64 noundef 3) #13
  br label %10

10:                                               ; preds = %8, %6
  %storemerge.i = phi i64 [ %9, %8 ], [ %7, %6 ]
  store i64 %storemerge.i, ptr %3, align 8, !tbaa !7
  %.not.i = icmp eq i64 %storemerge.i, 1
  br i1 %.not.i, label %11, label %step_i_iter.exit

11:                                               ; preds = %10
  %12 = getelementptr i8, ptr %3, i64 8
  %13 = load i64, ptr %12, align 8, !tbaa !7
  store i64 %13, ptr %3, align 8, !tbaa !7
  %14 = tail call i64 @rb_str_intern(i64 noundef %0) #13
  %15 = tail call i64 @rb_yield(i64 noundef %14) #13
  br label %step_i_iter.exit

step_i_iter.exit:                                 ; preds = %10, %11
  ret i32 0
}